target datalayout = "e-m:e-p270:32:32-p271:32:32-p272:64:64-i64:64-i128:128-f80:128-n8:16:32:64-S128"
target triple = "x86_64-pc-linux-gnu"

@_ZL15g_symbol_tables = internal global ptr null, align 8

; Function Attrs: inlinehint mustprogress nounwind uwtable
define linkonce_odr noundef nonnull align 4 dereferenceable(4) ptr @_ZSt3minIjERKT_S2_S2_(ptr noundef nonnull align 4 dereferenceable(4) %0, ptr noundef nonnull align 4 dereferenceable(4) %1) #7 comdat {
  %3 = alloca ptr, align 8
  %4 = alloca ptr, align 8
  %5 = alloca ptr, align 8
  store ptr %0, ptr %4, align 8, !tbaa !16
  store ptr %1, ptr %5, align 8, !tbaa !16
  %6 = load ptr, ptr %5, align 8, !tbaa !16
  %7 = load i32, ptr %6, align 4, !tbaa !14
  %8 = load ptr, ptr %4, align 8, !tbaa !16
  %9 = load i32, ptr %8, align 4, !tbaa !14
  %10 = icmp ult i32 %7, %9
  br i1 %10, label %11, label %13

11:                                               ; preds = %2
  %12 = load ptr, ptr %5, align 8, !tbaa !16
  store ptr %12, ptr %3, align 8
  br label %15

13:                                               ; preds = %2
  %14 = load ptr, ptr %4, align 8, !tbaa !16
  store ptr %14, ptr %3, align 8
  br label %15

15:                                               ; preds = %13, %11
  %16 = load ptr, ptr %3, align 8
  ret ptr %16
}

; Function Attrs: mustprogress uwtable
define hidden void @_Z18initialize_symbolsv() #5 {
  %1 = alloca i32, align 4
  %2 = alloca i32, align 4
  %3 = alloca i32, align 4
  %4 = load ptr, ptr @_ZL15g_symbol_tables, align 8, !tbaa !12
  %5 = icmp ne ptr %4, null
  br i1 %5, label %13, label %6

6:                                                ; preds = %0
  call void @llvm.lifetime.start.p0(i64 4, ptr %1) #3
  call void @llvm.lifetime.start.p0(i64 4, ptr %2) #3
  %7 = call noundef i32 @_ZNSt6thread20hardware_concurrencyEv() #3
  store i32 %7, ptr %2, align 4, !tbaa !14
  call void @llvm.lifetime.start.p0(i64 4, ptr %3) #3
  store i32 64, ptr %3, align 4, !tbaa !14
  %8 = call noundef nonnull align 4 dereferenceable(4) ptr @_ZSt3minIjERKT_S2_S2_(ptr noundef nonnull align 4 dereferenceable(4) %2, ptr noundef nonnull align 4 dereferenceable(4) %3)
  %9 = load i32, ptr %8, align 4, !tbaa !14
  %10 = mul i32 2, %9
  call void @llvm.lifetime.end.p0(i64 4, ptr %3) #3
  call void @llvm.lifetime.end.p0(i64 4, ptr %2) #3
  store i32 %10, ptr %1, align 4, !tbaa !14
  %11 = call noalias noundef ptr @_ZN6memory8allocateEm(i64 noundef 16)
  %12 = load i32, ptr %1, align 4, !tbaa !14
  call void @_ZN22internal_symbol_tablesC2Ej(ptr noundef nonnull align 8 dereferenceable(16) %11, i32 noundef %12)
  store ptr %11, ptr @_ZL15g_symbol_tables, align 8, !tbaa !12
  call void @llvm.lifetime.end.p0(i64 4, ptr %1) #3
  br label %13

13:                                               ; preds = %6, %0
  ret void
}