; Function Attrs: mustprogress uwtable
define hidden void @_Z18initialize_symbolsv() local_unnamed_addr #3 {
  %1 = load ptr, ptr @_ZL15g_symbol_tables, align 8, !tbaa !3
  %.not = icmp eq ptr %1, null
  br i1 %.not, label %2, label %6

2:                                                ; preds = %0
  %3 = tail call noundef i32 @_ZNSt6thread20hardware_concurrencyEv() #19
  %.sroa.speculated = tail call i32 @llvm.umin.i32(i32 %3, i32 64)
  %4 = shl nuw nsw i32 %.sroa.speculated, 1
  %5 = tail call noalias noundef ptr @_ZN6memory8allocateEm(i64 noundef 16)
  tail call void @_ZN22internal_symbol_tablesC2Ej(ptr noundef nonnull align 8 dereferenceable(16) %5, i32 noundef %4)
  store ptr %5, ptr @_ZL15g_symbol_tables, align 8, !tbaa !3
  br label %6

6:                                                ; preds = %2, %0
  ret void
}